target datalayout = "e-m:e-p270:32:32-p271:32:32-p272:64:64-i64:64-i128:128-f80:128-n8:16:32:64-S128"
target triple = "x86_64-pc-linux-gnu"

; Function Attrs: mustprogress nounwind uwtable
define noundef zeroext i1 @_ZN7glslang13TIntermediate16improperStraddleERKNS_5TTypeEiib(ptr noundef nonnull align 8 dereferenceable(152) %0, i32 noundef %1, i32 noundef %2, i1 noundef zeroext %3) #0 align 2 {
  %5 = alloca i1, align 1
  %6 = alloca ptr, align 8
  %7 = alloca i32, align 4
  %8 = alloca i32, align 4
  %9 = alloca i8, align 1
  store ptr %0, ptr %6, align 8
  store i32 %1, ptr %7, align 4
  store i32 %2, ptr %8, align 4
  %10 = zext i1 %3 to i8
  store i8 %10, ptr %9, align 1
  %11 = load i8, ptr %9, align 1
  %12 = trunc i8 %11 to i1
  br i1 %12, label %13, label %19

13:                                               ; preds = %4
  %14 = load ptr, ptr %6, align 8
  %15 = load ptr, ptr %14, align 8
  %16 = getelementptr inbounds ptr, ptr %15, i64 29
  %17 = load ptr, ptr %16, align 8
  %18 = call noundef zeroext i1 %17(ptr noundef nonnull align 8 dereferenceable(152) %14)
  br i1 %18, label %19, label %20

19:                                               ; preds = %13, %4
  store i1 false, ptr %5, align 1
  br label %38

20:                                               ; preds = %13
  %21 = load i32, ptr %7, align 4
  %22 = icmp sle i32 %21, 16
  br i1 %22, label %23, label %32

23:                                               ; preds = %20
  %24 = load i32, ptr %8, align 4
  %25 = sdiv i32 %24, 16
  %26 = load i32, ptr %8, align 4
  %27 = load i32, ptr %7, align 4
  %28 = add nsw i32 %26, %27
  %29 = sub nsw i32 %28, 1
  %30 = sdiv i32 %29, 16
  %31 = icmp ne i32 %25, %30
  br label %36

32:                                               ; preds = %20
  %33 = load i32, ptr %8, align 4
  %34 = srem i32 %33, 16
  %35 = icmp ne i32 %34, 0
  br label %36

36:                                               ; preds = %32, %23
  %37 = phi i1 [ %31, %23 ], [ %35, %32 ]
  store i1 %37, ptr %5, align 1
  br label %38

38:                                               ; preds = %36, %19
  %39 = load i1, ptr %5, align 1
  ret i1 %39
}