; Function Attrs: mustprogress nounwind uwtable
define noundef zeroext i1 @_ZN7glslang13TIntermediate16improperStraddleERKNS_5TTypeEiib(ptr noundef nonnull align 8 dereferenceable(152) %0, i32 noundef %1, i32 noundef %2, i1 noundef zeroext %3) local_unnamed_addr #0 align 2 {
  br i1 %3, label %5, label %21

5:                                                ; preds = %4
  %6 = load ptr, ptr %0, align 8
  %7 = getelementptr inbounds i8, ptr %6, i64 232
  %8 = load ptr, ptr %7, align 8
  %9 = tail call noundef zeroext i1 %8(ptr noundef nonnull align 8 dereferenceable(152) %0) #18
  br i1 %9, label %21, label %10

10:                                               ; preds = %5
  %11 = icmp slt i32 %1, 17
  br i1 %11, label %12, label %18

12:                                               ; preds = %10
  %13 = sdiv i32 %2, 16
  %14 = add i32 %1, -1
  %15 = add i32 %14, %2
  %16 = sdiv i32 %15, 16
  %17 = icmp ne i32 %13, %16
  br label %21

18:                                               ; preds = %10
  %19 = and i32 %2, 15
  %20 = icmp ne i32 %19, 0
  br label %21

21:                                               ; preds = %12, %18, %4, %5
  %.0 = phi i1 [ false, %5 ], [ false, %4 ], [ %17, %12 ], [ %20, %18 ]
  ret i1 %.0
}